; Function Attrs: mustprogress nounwind uwtable
define dso_local void @_ZN4llvm19SelectionDAGBuilder25lowerCallToExternalSymbolERKNS_8CallInstEPKc(ptr noundef nonnull align 8 dereferenceable(984) %0, ptr noundef nonnull align 8 dereferenceable(88) %1, ptr noundef %2) local_unnamed_addr #0 align 2 {
  %4 = getelementptr inbounds nuw i8, ptr %0, i64 832
  %5 = load ptr, ptr %4, align 8
  %6 = getelementptr inbounds nuw i8, ptr %5, i64 16
  %7 = load ptr, ptr %6, align 8
  %8 = getelementptr inbounds nuw i8, ptr %5, i64 40
  %9 = load ptr, ptr %8, align 8
  %10 = tail call noundef nonnull align 8 dereferenceable(512) ptr @_ZNK4llvm15MachineFunction13getDataLayoutEv(ptr noundef nonnull align 8 dereferenceable(1041) %9) #32
  %11 = load ptr, ptr %7, align 8
  %12 = getelementptr inbounds i8, ptr %11, i64 32
  %13 = load ptr, ptr %12, align 8
  %14 = tail call i16 %13(ptr noundef nonnull align 8 dereferenceable(408123) %7, ptr noundef nonnull align 8 dereferenceable(512) %10, i32 noundef 0) #32
  %15 = tail call { ptr, i32 } @_ZN4llvm12SelectionDAG17getExternalSymbolEPKcNS_3EVTE(ptr noundef nonnull align 8 dereferenceable(904) %5, ptr noundef %2, i16 %14, ptr null) #32
  %.fca.0.extract = extractvalue { ptr, i32 } %15, 0
  %.fca.1.extract = extractvalue { ptr, i32 } %15, 1
  %16 = getelementptr inbounds nuw i8, ptr %1, i64 2
  %17 = load i16, ptr %16, align 2
  %18 = and i16 %17, 3
  %19 = zext nneg i16 %18 to i32
  %20 = add nsw i32 %19, -1
  %21 = icmp ult i32 %20, 2
  %22 = icmp eq i16 %18, 2
  tail call void @_ZN4llvm19SelectionDAGBuilder11LowerCallToERKNS_8CallBaseENS_7SDValueEbbPKNS_10BasicBlockEPKNS_14TargetLowering11PtrAuthInfoE(ptr noundef nonnull align 8 dereferenceable(984) %0, ptr noundef nonnull align 8 dereferenceable(88) %1, ptr %.fca.0.extract, i32 %.fca.1.extract, i1 noundef zeroext %21, i1 noundef zeroext %22, ptr noundef null, ptr noundef null)
  ret void
}